
Discarded input sections

 .text          0x00000000        0x0 crt0.o
 .data          0x00000000        0x0 crt0.o
 .bss           0x00000000        0x0 crt0.o
 .text          0x00000000        0x0 core_list_join.o
 .data          0x00000000        0x0 core_list_join.o
 .bss           0x00000000        0x0 core_list_join.o
 .text.copy_info
                0x00000000       0x14 core_list_join.o
 .text.core_list_insert_new
                0x00000000       0x60 core_list_join.o
 .text.core_list_remove
                0x00000000       0x28 core_list_join.o
 .text.core_list_undo_remove
                0x00000000       0x20 core_list_join.o
 .text.core_list_find
                0x00000000       0x4c core_list_join.o
 .text.core_list_reverse
                0x00000000       0x24 core_list_join.o
 .text          0x00000000        0x0 core_main.o
 .data          0x00000000        0x0 core_main.o
 .bss           0x00000000        0x0 core_main.o
 .rodata.str1.4
                0x00000000       0x16 core_main.o
 .data.mem_name
                0x00000000        0xc core_main.o
 .text          0x00000000        0x0 core_matrix.o
 .data          0x00000000        0x0 core_matrix.o
 .bss           0x00000000        0x0 core_matrix.o
 .text.matrix_sum
                0x00000000      0x194 core_matrix.o
 .text.matrix_mul_const
                0x00000000      0x190 core_matrix.o
 .text.matrix_add_const
                0x00000000      0x144 core_matrix.o
 .text          0x00000000        0x0 core_state.o
 .data          0x00000000        0x0 core_state.o
 .bss           0x00000000        0x0 core_state.o
 .text          0x00000000        0x0 core_util.o
 .data          0x00000000        0x0 core_util.o
 .bss           0x00000000        0x0 core_util.o
 .text.crcu8    0x00000000      0x130 core_util.o
 .text          0x00000000        0x0 core_portme.o
 .data          0x00000000        0x0 core_portme.o
 .bss           0x00000000        0x0 core_portme.o
 .text.portable_malloc
                0x00000000        0x8 core_portme.o
 .text.portable_free
                0x00000000        0x4 core_portme.o
 .text          0x00000000        0x0 ee_printf.o
 .data          0x00000000        0x0 ee_printf.o
 .bss           0x00000000        0x0 ee_printf.o
 .text.uart_send_char
                0x00000000       0x20 ee_printf.o

Memory Configuration

Name             Origin             Length             Attributes
ROM              0x00000000         0x00010000         xr
RAM              0x10000000         0x00008000         xrw
*default*        0x00000000         0xffffffff

Linker script and memory map

                0x00001000                        __stack_size = 0x1000
                0x00001000                        __heap_size = 0x1000
LOAD crt0.o
LOAD core_list_join.o
LOAD core_main.o
LOAD core_matrix.o
LOAD core_state.o
LOAD core_util.o
LOAD core_portme.o
LOAD ee_printf.o
LOAD /opt/riscv/lib/gcc/riscv64-unknown-elf/15.2.0/rv32im/ilp32/libgcc.a
                0x00001000                        __stack_size = DEFINED (__stack_size)?__stack_size:0x800
                0x00001000                        __heap_size = DEFINED (__heap_size)?__heap_size:0x1000

.text           0x00000000     0x4de8
 *(.text.init)
 .text.init     0x00000000       0x70 crt0.o
                0x00000000                _start
                0x0000006c                _exit
 *(.text.unlikely .text.unlikely.*)
 *(.text.startup .text.startup.*)
 .text.startup.main
                0x00000070      0x7b8 core_main.o
                0x00000070                main
 *(.text .text.*)
 .text.cmp_idx  0x00000828       0x54 core_list_join.o
                0x00000828                cmp_idx
 .text.calc_func
                0x0000087c      0x134 core_list_join.o
                0x0000087c                calc_func
 .text.cmp_complex
                0x000009b0       0x48 core_list_join.o
                0x000009b0                cmp_complex
 .text.core_list_mergesort
                0x000009f8      0x550 core_list_join.o
                0x000009f8                core_list_mergesort
 .text.core_bench_list
                0x00000f48      0x300 core_list_join.o
                0x00000f48                core_bench_list
 .text.core_list_init
                0x00001248      0x350 core_list_join.o
                0x00001248                core_list_init
 .text.iterate  0x00001598      0x248 core_main.o
                0x00001598                iterate
 .text.core_init_matrix
                0x000017e0      0x2c4 core_matrix.o
                0x000017e0                core_init_matrix
 .text.matrix_mul_vect
                0x00001aa4      0x20c core_matrix.o
                0x00001aa4                matrix_mul_vect
 .text.matrix_mul_matrix
                0x00001cb0      0x270 core_matrix.o
                0x00001cb0                matrix_mul_matrix
 .text.matrix_mul_matrix_bitextract
                0x00001f20      0x200 core_matrix.o
                0x00001f20                matrix_mul_matrix_bitextract
 .text.matrix_test
                0x00002120      0xc48 core_matrix.o
                0x00002120                matrix_test
 .text.core_bench_matrix
                0x00002d68       0x3c core_matrix.o
                0x00002d68                core_bench_matrix
 .text.core_init_state
                0x00002da4      0x264 core_state.o
                0x00002da4                core_init_state
 .text.core_state_transition
                0x00003008      0x2e8 core_state.o
                0x00003008                core_state_transition
 .text.core_bench_state
                0x000032f0      0x1b4 core_state.o
                0x000032f0                core_bench_state
 .text.get_seed_32
                0x000034a4       0x54 core_util.o
                0x000034a4                get_seed_32
 .text.crcu16   0x000034f8      0x228 core_util.o
                0x000034f8                crcu16
 .text.crcu32   0x00003720      0x420 core_util.o
                0x00003720                crcu32
 .text.crc16    0x00003b40      0x22c core_util.o
                0x00003b40                crc16
 .text.check_data_types
                0x00003d6c        0x8 core_util.o
                0x00003d6c                check_data_types
 .text.start_time
                0x00003d74        0xc core_portme.o
                0x00003d74                start_time
 .text.stop_time
                0x00003d80        0xc core_portme.o
                0x00003d80                stop_time
 .text.get_time
                0x00003d8c       0x10 core_portme.o
                0x00003d8c                get_time
 .text.time_in_secs
                0x00003d9c       0x14 core_portme.o
                0x00003d9c                time_in_secs
 .text.portable_init
                0x00003db0        0xc core_portme.o
                0x00003db0                portable_init
 .text.portable_fini
                0x00003dbc        0x8 core_portme.o
                0x00003dbc                portable_fini
 .text.number   0x00003dc4      0x658 ee_printf.o
 .text.ee_printf
                0x0000441c      0x9cc ee_printf.o
                0x0000441c                ee_printf
 *(.gnu.linkonce.t.*)

.rodata         0x00004de8      0x98c
 *(.rdata)
 *(.rodata .rodata.*)
 .rodata.main.str1.4
                0x00004de8      0x52b core_main.o
                                0x421 (size before relaxing)
 *fill*         0x00005313        0x1 
 .rodata.state_known_crc
                0x00005314        0xa core_main.o
 *fill*         0x0000531e        0x2 
 .rodata.matrix_known_crc
                0x00005320        0xa core_main.o
 *fill*         0x0000532a        0x2 
 .rodata.list_known_crc
                0x0000532c        0xa core_main.o
 .rodata.str1.4
                0x00005336        0x0 core_state.o
                                 0xad (size before relaxing)
 *fill*         0x00005336        0x2 
 .rodata.errpat
                0x00005338       0x10 core_state.o
 .rodata.scipat
                0x00005348       0x10 core_state.o
 .rodata.floatpat
                0x00005358       0x10 core_state.o
 .rodata.intpat
                0x00005368       0x10 core_state.o
 .rodata.get_seed_32
                0x00005378       0x18 core_util.o
 .rodata        0x00005390      0x200 core_util.o
 .rodata.number.str1.4
                0x00005590        0x0 ee_printf.o
                                 0x4d (size before relaxing)
 .rodata.ee_printf.str1.4
                0x00005590        0x0 ee_printf.o
                                  0x7 (size before relaxing)
 .rodata.ee_printf
                0x00005590      0x1e4 ee_printf.o
 *(.gnu.linkonce.r.*)
 *(.srodata.cst16)
 *(.srodata.cst8)
 *(.srodata.cst4)
 *(.srodata.cst2)
 *(.srodata .srodata.*)

.rela.dyn       0x00005774        0x0
 .rela.text.init
                0x00005774        0x0 crt0.o

.srodata
 *(.srodata .srodata.*)
                0x00005774                        _etext = .
                [!provide]                        PROVIDE (etext = .)

.data           0x10000000        0xc load address 0x00005774
                0x10000000                        _data_start = .
                0x10000000                        __DATA_BEGIN__ = .
 *(.data .data.*)
 *(.gnu.linkonce.d.*)
                0x10000000                        . = ALIGN (0x8)
                0x10000800                        PROVIDE (__global_pointer$ = (. + 0x800))
 *(.sdata .sdata.*)
 .sdata.default_num_contexts
                0x10000000        0x4 core_portme.o
                0x10000000                default_num_contexts
 .sdata.seed4_volatile
                0x10000004        0x4 core_portme.o
                0x10000004                seed4_volatile
 .sdata.seed3_volatile
                0x10000008        0x4 core_portme.o
                0x10000008                seed3_volatile
 *(.sdata2 .sdata2.*)
 *(.gnu.linkonce.s.*)
                0x1000000c                        _data_end = .
                0x00005774                        _data_load = LOADADDR (.data)

.bss            0x1000000c       0x14 load address 0x00005780
                0x1000000c                        _bss_start = .
                0x1000000c                        __BSS_START__ = .
 *(.sbss .sbss.*)
 .sbss.stop_time_val
                0x1000000c        0x4 core_portme.o
 .sbss.start_time_val
                0x10000010        0x4 core_portme.o
 .sbss.seed5_volatile
                0x10000014        0x4 core_portme.o
                0x10000014                seed5_volatile
 .sbss.seed2_volatile
                0x10000018        0x4 core_portme.o
                0x10000018                seed2_volatile
 .sbss.seed1_volatile
                0x1000001c        0x4 core_portme.o
                0x1000001c                seed1_volatile
 *(.gnu.linkonce.sb.*)
 *(.bss .bss.*)
 *(.gnu.linkonce.b.*)
 *(COMMON)
                0x10000020                        . = ALIGN (0x4)
                0x10000020                        _bss_end = .
                0x10000020                        __BSS_END__ = .

.heap           0x10000020     0x1000 load address 0x00005780
                [!provide]                        PROVIDE (__heap_start = .)
                [!provide]                        PROVIDE (_heap_start = .)
                0x10001020                        . = (. + __heap_size)
 *fill*         0x10000020     0x1000 
                [!provide]                        PROVIDE (__heap_end = .)
                [!provide]                        PROVIDE (_heap_end = .)

.stack          0x10001020     0x1000 load address 0x00005780
                [!provide]                        PROVIDE (__stack_bottom = .)
                0x10002020                        . = (. + __stack_size)
 *fill*         0x10001020     0x1000 
                0x10002020                        PROVIDE (__stack_top = .)
                [!provide]                        PROVIDE (_sp = .)
                0x10002020                        _end = .
                [!provide]                        PROVIDE (end = .)
OUTPUT(coremark.elf elf32-littleriscv)

.riscv.attributes
                0x00000000       0x37
 .riscv.attributes
                0x00000000       0x31 crt0.o
 .riscv.attributes
                0x00000031       0x33 core_list_join.o
 .riscv.attributes
                0x00000064       0x33 core_main.o
 .riscv.attributes
                0x00000097       0x33 core_matrix.o
 .riscv.attributes
                0x000000ca       0x33 core_state.o
 .riscv.attributes
                0x000000fd       0x33 core_util.o
 .riscv.attributes
                0x00000130       0x37 core_portme.o
 .riscv.attributes
                0x00000167       0x33 ee_printf.o

.comment        0x00000000       0x19
 .comment       0x00000000       0x19 core_list_join.o
                                 0x1a (size before relaxing)
 .comment       0x00000019        0x0 core_main.o
                                 0x1a (size before relaxing)
 .comment       0x00000019        0x0 core_matrix.o
                                 0x1a (size before relaxing)
 .comment       0x00000019        0x0 core_state.o
                                 0x1a (size before relaxing)
 .comment       0x00000019        0x0 core_util.o
                                 0x1a (size before relaxing)
 .comment       0x00000019        0x0 core_portme.o
                                 0x1a (size before relaxing)
 .comment       0x00000019        0x0 ee_printf.o
                                 0x1a (size before relaxing)

.note.GNU-stack
                0x00000000        0x0
 .note.GNU-stack
                0x00000000        0x0 core_list_join.o
 .note.GNU-stack
                0x00000000        0x0 core_main.o
 .note.GNU-stack
                0x00000000        0x0 core_matrix.o
 .note.GNU-stack
                0x00000000        0x0 core_state.o
 .note.GNU-stack
                0x00000000        0x0 core_util.o
 .note.GNU-stack
                0x00000000        0x0 core_portme.o
 .note.GNU-stack
                0x00000000        0x0 ee_printf.o
